; Function Attrs: nounwind uwtable
define noalias nonnull ptr @l_Lean_Name_mkStr2(ptr noundef %0, ptr noundef %1) local_unnamed_addr #0 {
  %.0.i.i = load i64, ptr @l_Lean_Name_hash___override___closed__1, align 8, !tbaa !17
  %3 = tail call i64 @lean_string_hash(ptr noundef %0) #11
  %4 = tail call i64 @lean_uint64_mix_hash(i64 noundef %.0.i.i, i64 noundef %3) #11
  tail call void @lean_inc_heartbeat() #11
  %5 = tail call noalias ptr @mi_malloc_small(i64 noundef 32) #11
  %.fr = freeze ptr %5
  %6 = icmp eq ptr %.fr, null
  br i1 %6, label %7, label %l_Lean_Name_str___override.exit

7:                                                ; preds = %2
  tail call void @lean_internal_panic_out_of_memory() #12
  unreachable

l_Lean_Name_str___override.exit:                  ; preds = %2
  %8 = getelementptr inbounds nuw i8, ptr %.fr, i64 4
  store i32 1, ptr %.fr, align 4, !tbaa !4
  store i32 16908320, ptr %8, align 4
  %9 = getelementptr inbounds nuw i8, ptr %.fr, i64 8
  store ptr inttoptr (i64 1 to ptr), ptr %9, align 8, !tbaa !10
  %10 = getelementptr inbounds nuw i8, ptr %.fr, i64 16
  store ptr %0, ptr %10, align 8, !tbaa !10
  %11 = getelementptr inbounds nuw i8, ptr %.fr, i64 24
  store i64 %4, ptr %11, align 8, !tbaa !17
  %12 = ptrtoint ptr %.fr to i64
  %13 = and i64 %12, 1
  %.not.i.i.i = icmp eq i64 %13, 0
  %14 = and i64 %12, 8589934590
  %15 = icmp eq i64 %14, 0
  %spec.select = select i1 %15, ptr @l_Lean_Name_hash___override___closed__1, ptr %11
  %16 = select i1 %.not.i.i.i, ptr %11, ptr %spec.select
  %.0.i.i5 = load i64, ptr %16, align 8, !tbaa !17
  %17 = tail call i64 @lean_string_hash(ptr noundef %1) #11
  %18 = tail call i64 @lean_uint64_mix_hash(i64 noundef %.0.i.i5, i64 noundef %17) #11
  tail call void @lean_inc_heartbeat() #11
  %19 = tail call noalias ptr @mi_malloc_small(i64 noundef 32) #11
  %20 = icmp eq ptr %19, null
  br i1 %20, label %21, label %l_Lean_Name_str___override.exit6

21:                                               ; preds = %l_Lean_Name_str___override.exit
  tail call void @lean_internal_panic_out_of_memory() #12
  unreachable

l_Lean_Name_str___override.exit6:                 ; preds = %l_Lean_Name_str___override.exit
  %22 = getelementptr inbounds nuw i8, ptr %19, i64 4
  store i32 1, ptr %19, align 4, !tbaa !4
  store i32 16908320, ptr %22, align 4
  %23 = getelementptr inbounds nuw i8, ptr %19, i64 8
  store ptr %.fr, ptr %23, align 8, !tbaa !10
  %24 = getelementptr inbounds nuw i8, ptr %19, i64 16
  store ptr %1, ptr %24, align 8, !tbaa !10
  %25 = getelementptr inbounds nuw i8, ptr %19, i64 24
  store i64 %18, ptr %25, align 8, !tbaa !17
  ret ptr %19
}